target datalayout = "e-m:e-p270:32:32-p271:32:32-p272:64:64-i64:64-i128:128-f80:128-n8:16:32:64-S128"
target triple = "x86_64-pc-linux-gnu"

%struct.poly1305_state_internal_t = type { %union.anon, [5 x i32], [5 x i32], [5 x i32], [2 x i64], i64, i64, [32 x i8] }
%union.anon = type { [3 x i64], [16 x i8] }

; Function Attrs: nounwind ssp uwtable
define internal i32 @crypto_onetimeauth_poly1305_sse2(ptr noundef %0, ptr noundef %1, i64 noundef %2, ptr noundef %3) #0 {
  %5 = alloca ptr, align 8
  %6 = alloca ptr, align 8
  %7 = alloca i64, align 8
  %8 = alloca ptr, align 8
  %9 = alloca %struct.poly1305_state_internal_t, align 64
  %10 = alloca i64, align 8
  store ptr %0, ptr %5, align 8
  store ptr %1, ptr %6, align 8
  store i64 %2, ptr %7, align 8
  store ptr %3, ptr %8, align 8
  call void @llvm.lifetime.start.p0(i64 168, ptr %9) #11
  call void @llvm.lifetime.start.p0(i64 8, ptr %10) #11
  %11 = load ptr, ptr %8, align 8
  %12 = load i64, ptr %7, align 8
  call void @poly1305_init_ext(ptr noundef %9, ptr noundef %11, i64 noundef %12)
  %13 = load i64, ptr %7, align 8
  %14 = and i64 %13, -32
  store i64 %14, ptr %10, align 8
  %15 = load i64, ptr %10, align 8
  %16 = icmp ugt i64 %15, 0
  br i1 %16, label %17, label %26

17:                                               ; preds = %4
  %18 = load ptr, ptr %6, align 8
  %19 = load i64, ptr %10, align 8
  call void @poly1305_blocks(ptr noundef %9, ptr noundef %18, i64 noundef %19)
  %20 = load i64, ptr %10, align 8
  %21 = load ptr, ptr %6, align 8
  %22 = getelementptr i8, ptr %21, i64 %20
  store ptr %22, ptr %6, align 8
  %23 = load i64, ptr %10, align 8
  %24 = load i64, ptr %7, align 8
  %25 = sub i64 %24, %23
  store i64 %25, ptr %7, align 8
  br label %26

26:                                               ; preds = %17, %4
  %27 = load ptr, ptr %6, align 8
  %28 = load i64, ptr %7, align 8
  %29 = load ptr, ptr %5, align 8
  call void @poly1305_finish_ext(ptr noundef %9, ptr noundef %27, i64 noundef %28, ptr noundef %29)
  call void @llvm.lifetime.end.p0(i64 8, ptr %10) #11
  call void @llvm.lifetime.end.p0(i64 168, ptr %9) #11
  ret i32 0
}