; Function Attrs: nounwind ssp uwtable
define internal noundef i32 @crypto_onetimeauth_poly1305_sse2(ptr noundef %0, ptr noundef captures(address) %1, i64 noundef %2, ptr noundef readonly captures(none) %3) #0 {
  %5 = alloca %struct.poly1305_state_internal_t, align 64
  call void @llvm.lifetime.start.p0(i64 168, ptr nonnull %5) #11
  call fastcc void @poly1305_init_ext(ptr noundef nonnull %5, ptr noundef %3, i64 noundef %2)
  %6 = and i64 %2, -32
  %.not = icmp eq i64 %6, 0
  br i1 %.not, label %10, label %7

7:                                                ; preds = %4
  call fastcc void @poly1305_blocks(ptr noundef nonnull %5, ptr noundef %1, i64 noundef %6)
  %8 = getelementptr i8, ptr %1, i64 %6
  %9 = and i64 %2, 31
  br label %10

10:                                               ; preds = %7, %4
  %.012 = phi i64 [ %9, %7 ], [ %2, %4 ]
  %.0 = phi ptr [ %8, %7 ], [ %1, %4 ]
  call fastcc void @poly1305_finish_ext(ptr noundef nonnull %5, ptr noundef %.0, i64 noundef %.012, ptr noundef %0)
  call void @llvm.lifetime.end.p0(i64 168, ptr nonnull %5) #11
  ret i32 0
}